target datalayout = "e-m:e-p270:32:32-p271:32:32-p272:64:64-i64:64-i128:128-f80:128-n8:16:32:64-S128"
target triple = "x86_64-pc-linux-gnu"

%struct.H5Z_class2_t = type { i32, i32, i32, i32, ptr, ptr, ptr, ptr }

@.str = private unnamed_addr constant [97 x i8] c"generated/home/dtcxzyw/WorkSpace/Projects/compilers/llvm-opt-benchmark/bench/hdf5/hdf5/src/H5Z.c\00", align 1
@H5E_PLINE_g = external global i64, align 8
@H5Z_table_g = internal global ptr null, align 8
@H5Z_table_used_g = internal global i64 0, align 8
@H5E_NOTFOUND_g = external global i64, align 8
@__func__.H5Z_find = private unnamed_addr constant [9 x i8] c"H5Z_find\00", align 1
@.str.32 = private unnamed_addr constant [37 x i8] c"required filter %d is not registered\00", align 1

; Function Attrs: nounwind uwtable
define internal i32 @H5Z__find_idx(i32 noundef %0) #0 {
  %2 = alloca i32, align 4
  %3 = alloca i64, align 8
  %4 = alloca i32, align 4
  store i32 %0, ptr %2, align 4
  store i32 -1, ptr %4, align 4
  store i64 0, ptr %3, align 8
  br label %5

5:                                                ; preds = %23, %1
  %6 = load i64, ptr %3, align 8
  %7 = load i64, ptr @H5Z_table_used_g, align 8
  %8 = icmp ult i64 %6, %7
  br i1 %8, label %9, label %26

9:                                                ; preds = %5
  %10 = load ptr, ptr @H5Z_table_g, align 8
  %11 = load i64, ptr %3, align 8
  %12 = getelementptr inbounds %struct.H5Z_class2_t, ptr %10, i64 %11
  %13 = getelementptr inbounds %struct.H5Z_class2_t, ptr %12, i32 0, i32 1
  %14 = load i32, ptr %13, align 4
  %15 = load i32, ptr %2, align 4
  %16 = icmp eq i32 %14, %15
  br i1 %16, label %17, label %22

17:                                               ; preds = %9
  br label %18

18:                                               ; preds = %17
  %19 = load i64, ptr %3, align 8
  %20 = trunc i64 %19 to i32
  store i32 %20, ptr %4, align 4
  br label %27

21:                                               ; No predecessors!
  br label %22

22:                                               ; preds = %21, %9
  br label %23

23:                                               ; preds = %22
  %24 = load i64, ptr %3, align 8
  %25 = add i64 %24, 1
  store i64 %25, ptr %3, align 8
  br label %5

26:                                               ; preds = %5
  br label %27

27:                                               ; preds = %26, %18
  %28 = load i32, ptr %4, align 4
  ret i32 %28
}

; Function Attrs: nounwind uwtable
define ptr @H5Z_find(i32 noundef %0) #0 {
  %2 = alloca i32, align 4
  %3 = alloca i32, align 4
  %4 = alloca ptr, align 8
  %5 = alloca i8, align 1
  store i32 %0, ptr %2, align 4
  store ptr null, ptr %4, align 8
  store i8 0, ptr %5, align 1
  %6 = load i32, ptr %2, align 4
  %7 = call i32 @H5Z__find_idx(i32 noundef %6)
  store i32 %7, ptr %3, align 4
  %8 = icmp slt i32 %7, 0
  br i1 %8, label %9, label %25

9:                                                ; preds = %1
  br label %10

10:                                               ; preds = %9
  br label %11

11:                                               ; preds = %10
  br label %12

12:                                               ; preds = %11
  %13 = load i64, ptr @H5E_PLINE_g, align 8
  %14 = load i64, ptr @H5E_NOTFOUND_g, align 8
  %15 = load i32, ptr %2, align 4
  %16 = call i32 (ptr, ptr, i32, i64, i64, ptr, ...) @H5E_printf_stack(ptr noundef @.str, ptr noundef @__func__.H5Z_find, i32 noundef 1311, i64 noundef %13, i64 noundef %14, ptr noundef @.str.32, i32 noundef %15)
  br label %17

17:                                               ; preds = %12
  store i8 1, ptr %5, align 1
  %18 = load i8, ptr %5, align 1
  %19 = trunc i8 %18 to i1
  %20 = zext i1 %19 to i8
  store i8 %20, ptr %5, align 1
  br label %21

21:                                               ; preds = %17
  br label %22

22:                                               ; preds = %21
  store ptr null, ptr %4, align 8
  br label %30

23:                                               ; No predecessors!
  br label %24

24:                                               ; preds = %23
  br label %25

25:                                               ; preds = %24, %1
  %26 = load ptr, ptr @H5Z_table_g, align 8
  %27 = load i32, ptr %3, align 4
  %28 = sext i32 %27 to i64
  %29 = getelementptr inbounds %struct.H5Z_class2_t, ptr %26, i64 %28
  store ptr %29, ptr %4, align 8
  br label %30

30:                                               ; preds = %25, %22
  %31 = load ptr, ptr %4, align 8
  ret ptr %31
}